target datalayout = "e-m:e-p270:32:32-p271:32:32-p272:64:64-i64:64-i128:128-f80:128-n8:16:32:64-S128"
target triple = "x86_64-pc-linux-gnu"

%struct._php_ps_globals = type { ptr, ptr, ptr, ptr, ptr, i64, ptr, ptr, ptr, i8, i8, ptr, ptr, ptr, i32, ptr, i32, i32, %struct._php_random_status_state_pcgoneseq128xslrr64, %struct._php_random_algo_with_state, i64, i64, i64, i64, %struct.anon, ptr, i8, i8, i8, i8, i8, i8, i8, i8, ptr, %struct._zval_struct, i64, i64, ptr, ptr, ptr, i64, double, i8, i8, i8, i8, i8, i8, ptr }
%struct._php_random_status_state_pcgoneseq128xslrr64 = type { i128 }
%struct._php_random_algo_with_state = type { ptr, ptr }
%struct.anon = type { %struct._zval_struct, %struct._zval_struct, %struct._zval_struct, %struct._zval_struct, %struct._zval_struct, %struct._zval_struct, %struct._zval_struct, %struct._zval_struct, %struct._zval_struct }
%struct._zval_struct = type { %union._zend_value, %union.anon, %union.anon.3 }
%union._zend_value = type { i64 }
%union.anon = type { i32 }
%union.anon.3 = type { i32 }
%struct._zend_executor_globals = type { %struct._zval_struct, %struct._zval_struct, [32 x ptr], ptr, ptr, %struct._zend_array, %struct._zend_array, ptr, i32, i32, ptr, ptr, ptr, ptr, ptr, ptr, i64, ptr, ptr, i32, i32, i64, i32, i32, i32, i8, i8, %struct.zend_atomic_bool_s, %struct.zend_atomic_bool_s, ptr, i64, ptr, ptr, %struct._zend_array, %struct._zend_array, i32, i8, %struct._zval_struct, %struct._zval_struct, %struct._zend_stack, %struct._zend_stack, %struct._zend_stack, ptr, i32, i32, i64, ptr, ptr, ptr, %struct._zend_objects_store, ptr, ptr, ptr, [3 x %struct._zend_op], ptr, i8, i8, i64, i32, i32, ptr, [16 x %struct._HashTableIterator], ptr, %union._zend_function, %struct._zend_op, %struct._zend_array, i64, %struct.zend_get_gc_buffer, ptr, ptr, ptr, i64, i8, i32, ptr, ptr, i64, %struct._zend_call_stack, i64, i64, [6 x ptr] }
%struct.zend_atomic_bool_s = type { i8 }
%struct._zend_stack = type { i32, i32, i32, ptr }
%struct._zend_objects_store = type { ptr, i32, i32, i32 }
%struct._HashTableIterator = type { ptr, i32, i32 }
%union._zend_function = type { %struct._zend_op_array }
%struct._zend_op_array = type { i8, [3 x i8], i32, ptr, ptr, ptr, i32, i32, ptr, ptr, ptr, ptr, i32, i32, i32, i32, ptr, ptr, ptr, ptr, ptr, i32, i32, ptr, ptr, ptr, i32, i32, i32, i32, ptr, ptr, [6 x ptr] }
%struct._zend_op = type { ptr, %union._znode_op, %union._znode_op, %union._znode_op, i32, i32, i8, i8, i8, i8 }
%union._znode_op = type { i32 }
%struct._zend_array = type { %struct._zend_refcounted_h, %union.anon.5, i32, %union.anon.7, i32, i32, i32, i32, i64, ptr }
%struct._zend_refcounted_h = type { i32, %union.anon.4 }
%union.anon.4 = type { i32 }
%union.anon.5 = type { i32 }
%union.anon.7 = type { ptr }
%struct.zend_get_gc_buffer = type { ptr, ptr, ptr }
%struct._zend_call_stack = type { ptr, i64 }
%struct._zend_execute_data = type { ptr, ptr, ptr, ptr, %struct._zval_struct, ptr, ptr, ptr, ptr }

@ps_globals = global %struct._php_ps_globals zeroinitializer, align 16
@executor_globals = external global %struct._zend_executor_globals, align 8
@.str.22 = private unnamed_addr constant [9 x i8] c"lifetime\00", align 1
@.str.23 = private unnamed_addr constant [5 x i8] c"path\00", align 1
@.str.24 = private unnamed_addr constant [7 x i8] c"domain\00", align 1
@.str.25 = private unnamed_addr constant [7 x i8] c"secure\00", align 1
@.str.26 = private unnamed_addr constant [9 x i8] c"httponly\00", align 1
@.str.27 = private unnamed_addr constant [9 x i8] c"samesite\00", align 1

; Function Attrs: nounwind uwtable
define hidden void @zif_session_get_cookie_params(ptr noundef %0, ptr noundef %1) #0 {
  %3 = alloca ptr, align 8
  %4 = alloca ptr, align 8
  %5 = alloca i8, align 1
  %6 = alloca ptr, align 8
  %7 = alloca ptr, align 8
  %8 = alloca i8, align 1
  %9 = alloca ptr, align 8
  %10 = alloca ptr, align 8
  %11 = alloca ptr, align 8
  %12 = alloca ptr, align 8
  %13 = alloca ptr, align 8
  %14 = alloca ptr, align 8
  %15 = alloca ptr, align 8
  %16 = alloca ptr, align 8
  %17 = alloca ptr, align 8
  %18 = alloca ptr, align 8
  %19 = alloca ptr, align 8
  %20 = alloca i64, align 8
  %21 = alloca ptr, align 8
  %22 = alloca ptr, align 8
  %23 = alloca ptr, align 8
  %24 = alloca ptr, align 8
  store ptr %0, ptr %21, align 8
  store ptr %1, ptr %22, align 8
  %25 = load ptr, ptr %21, align 8
  %26 = getelementptr inbounds %struct._zend_execute_data, ptr %25, i32 0, i32 4
  %27 = getelementptr inbounds %struct._zval_struct, ptr %26, i32 0, i32 2
  %28 = load i32, ptr %27, align 4
  %29 = icmp eq i32 %28, 0
  %30 = xor i1 %29, true
  %31 = xor i1 %30, true
  %32 = zext i1 %31 to i32
  %33 = sext i32 %32 to i64
  %34 = icmp ne i64 %33, 0
  br i1 %34, label %35, label %36

35:                                               ; preds = %2
  br label %37

36:                                               ; preds = %2
  call void @zend_wrong_parameters_none_error()
  br label %37

37:                                               ; preds = %36, %35
  %38 = phi i32 [ 0, %35 ], [ -1, %36 ]
  %39 = icmp eq i32 %38, -1
  br i1 %39, label %40, label %45

40:                                               ; preds = %37
  br label %41

41:                                               ; preds = %40
  %42 = load ptr, ptr getelementptr inbounds (%struct._zend_executor_globals, ptr @executor_globals, i32 0, i32 50), align 8
  %43 = icmp ne ptr %42, null
  call void @llvm.assume(i1 %43)
  br label %103

44:                                               ; No predecessors!
  br label %45

45:                                               ; preds = %44, %37
  br label %46

46:                                               ; preds = %45
  %47 = call ptr @_zend_new_array_0()
  store ptr %47, ptr %23, align 8
  %48 = load ptr, ptr %22, align 8
  store ptr %48, ptr %24, align 8
  %49 = load ptr, ptr %23, align 8
  %50 = load ptr, ptr %24, align 8
  %51 = getelementptr inbounds %struct._zval_struct, ptr %50, i32 0, i32 0
  store ptr %49, ptr %51, align 8
  %52 = load ptr, ptr %24, align 8
  %53 = getelementptr inbounds %struct._zval_struct, ptr %52, i32 0, i32 1
  store i32 775, ptr %53, align 8
  br label %54

54:                                               ; preds = %46
  %55 = load ptr, ptr %22, align 8
  %56 = load i64, ptr getelementptr inbounds (%struct._php_ps_globals, ptr @ps_globals, i32 0, i32 5), align 8
  store ptr %55, ptr %18, align 8
  store ptr @.str.22, ptr %19, align 8
  store i64 %56, ptr %20, align 8
  %57 = load ptr, ptr %18, align 8
  %58 = load ptr, ptr %19, align 8
  %59 = load ptr, ptr %19, align 8
  %60 = call i64 @strlen(ptr noundef %59) #16
  %61 = load i64, ptr %20, align 8
  call void @add_assoc_long_ex(ptr noundef %57, ptr noundef %58, i64 noundef %60, i64 noundef %61) #14
  %62 = load ptr, ptr %22, align 8
  %63 = load ptr, ptr getelementptr inbounds (%struct._php_ps_globals, ptr @ps_globals, i32 0, i32 6), align 16
  store ptr %62, ptr %9, align 8
  store ptr @.str.23, ptr %10, align 8
  store ptr %63, ptr %11, align 8
  %64 = load ptr, ptr %9, align 8
  %65 = load ptr, ptr %10, align 8
  %66 = load ptr, ptr %10, align 8
  %67 = call i64 @strlen(ptr noundef %66) #16
  %68 = load ptr, ptr %11, align 8
  call void @add_assoc_string_ex(ptr noundef %64, ptr noundef %65, i64 noundef %67, ptr noundef %68) #14
  %69 = load ptr, ptr %22, align 8
  %70 = load ptr, ptr getelementptr inbounds (%struct._php_ps_globals, ptr @ps_globals, i32 0, i32 7), align 8
  store ptr %69, ptr %12, align 8
  store ptr @.str.24, ptr %13, align 8
  store ptr %70, ptr %14, align 8
  %71 = load ptr, ptr %12, align 8
  %72 = load ptr, ptr %13, align 8
  %73 = load ptr, ptr %13, align 8
  %74 = call i64 @strlen(ptr noundef %73) #16
  %75 = load ptr, ptr %14, align 8
  call void @add_assoc_string_ex(ptr noundef %71, ptr noundef %72, i64 noundef %74, ptr noundef %75) #14
  %76 = load ptr, ptr %22, align 8
  %77 = load i8, ptr getelementptr inbounds (%struct._php_ps_globals, ptr @ps_globals, i32 0, i32 9), align 8
  %78 = trunc i8 %77 to i1
  store ptr %76, ptr %3, align 8
  store ptr @.str.25, ptr %4, align 8
  %79 = zext i1 %78 to i8
  store i8 %79, ptr %5, align 1
  %80 = load ptr, ptr %3, align 8
  %81 = load ptr, ptr %4, align 8
  %82 = load ptr, ptr %4, align 8
  %83 = call i64 @strlen(ptr noundef %82) #16
  %84 = load i8, ptr %5, align 1
  %85 = trunc i8 %84 to i1
  call void @add_assoc_bool_ex(ptr noundef %80, ptr noundef %81, i64 noundef %83, i1 noundef zeroext %85) #14
  %86 = load ptr, ptr %22, align 8
  %87 = load i8, ptr getelementptr inbounds (%struct._php_ps_globals, ptr @ps_globals, i32 0, i32 10), align 1
  %88 = trunc i8 %87 to i1
  store ptr %86, ptr %6, align 8
  store ptr @.str.26, ptr %7, align 8
  %89 = zext i1 %88 to i8
  store i8 %89, ptr %8, align 1
  %90 = load ptr, ptr %6, align 8
  %91 = load ptr, ptr %7, align 8
  %92 = load ptr, ptr %7, align 8
  %93 = call i64 @strlen(ptr noundef %92) #16
  %94 = load i8, ptr %8, align 1
  %95 = trunc i8 %94 to i1
  call void @add_assoc_bool_ex(ptr noundef %90, ptr noundef %91, i64 noundef %93, i1 noundef zeroext %95) #14
  %96 = load ptr, ptr %22, align 8
  %97 = load ptr, ptr getelementptr inbounds (%struct._php_ps_globals, ptr @ps_globals, i32 0, i32 8), align 16
  store ptr %96, ptr %15, align 8
  store ptr @.str.27, ptr %16, align 8
  store ptr %97, ptr %17, align 8
  %98 = load ptr, ptr %15, align 8
  %99 = load ptr, ptr %16, align 8
  %100 = load ptr, ptr %16, align 8
  %101 = call i64 @strlen(ptr noundef %100) #16
  %102 = load ptr, ptr %17, align 8
  call void @add_assoc_string_ex(ptr noundef %98, ptr noundef %99, i64 noundef %101, ptr noundef %102) #14
  br label %103

103:                                              ; preds = %54, %41
  ret void
}