; Function Attrs: nounwind uwtable
define hidden void @zif_session_get_cookie_params(ptr nocapture noundef readonly %0, ptr noundef %1) #0 {
  %3 = getelementptr inbounds i8, ptr %0, i64 44
  %4 = load i32, ptr %3, align 4
  %.not = icmp eq i32 %4, 0
  br i1 %.not, label %.critedge, label %5

5:                                                ; preds = %2
  tail call void @zend_wrong_parameters_none_error() #23
  %6 = load ptr, ptr getelementptr inbounds (%struct._zend_executor_globals, ptr @executor_globals, i64 0, i32 50), align 8
  %7 = icmp ne ptr %6, null
  tail call void @llvm.assume(i1 %7)
  br label %20

.critedge:                                        ; preds = %2
  %8 = tail call ptr @_zend_new_array_0() #23
  store ptr %8, ptr %1, align 8
  %9 = getelementptr inbounds i8, ptr %1, i64 8
  store i32 775, ptr %9, align 8
  %10 = load i64, ptr getelementptr inbounds (%struct._php_ps_globals, ptr @ps_globals, i64 0, i32 5), align 8
  tail call void @add_assoc_long_ex(ptr noundef nonnull %1, ptr noundef nonnull @.str.22, i64 noundef 8, i64 noundef %10) #23
  %11 = load ptr, ptr getelementptr inbounds (%struct._php_ps_globals, ptr @ps_globals, i64 0, i32 6), align 16
  tail call void @add_assoc_string_ex(ptr noundef nonnull %1, ptr noundef nonnull @.str.23, i64 noundef 4, ptr noundef %11) #23
  %12 = load ptr, ptr getelementptr inbounds (%struct._php_ps_globals, ptr @ps_globals, i64 0, i32 7), align 8
  tail call void @add_assoc_string_ex(ptr noundef nonnull %1, ptr noundef nonnull @.str.24, i64 noundef 6, ptr noundef %12) #23
  %13 = load i8, ptr getelementptr inbounds (%struct._php_ps_globals, ptr @ps_globals, i64 0, i32 9), align 8
  %14 = and i8 %13, 1
  %15 = icmp ne i8 %14, 0
  tail call void @add_assoc_bool_ex(ptr noundef nonnull %1, ptr noundef nonnull @.str.25, i64 noundef 6, i1 noundef zeroext %15) #23
  %16 = load i8, ptr getelementptr inbounds (%struct._php_ps_globals, ptr @ps_globals, i64 0, i32 10), align 1
  %17 = and i8 %16, 1
  %18 = icmp ne i8 %17, 0
  tail call void @add_assoc_bool_ex(ptr noundef nonnull %1, ptr noundef nonnull @.str.26, i64 noundef 8, i1 noundef zeroext %18) #23
  %19 = load ptr, ptr getelementptr inbounds (%struct._php_ps_globals, ptr @ps_globals, i64 0, i32 8), align 16
  tail call void @add_assoc_string_ex(ptr noundef nonnull %1, ptr noundef nonnull @.str.27, i64 noundef 8, ptr noundef %19) #23
  br label %20

20:                                               ; preds = %.critedge, %5
  ret void
}